; Function Attrs: mustprogress nounwind uwtable
define noundef zeroext i1 @_ZN5boost10filesystem13portable_nameERKNSt7__cxx1112basic_stringIcSt11char_traitsIcESaIcEEE(ptr noundef nonnull align 8 dereferenceable(32) %0) local_unnamed_addr #0 {
  %2 = getelementptr inbounds nuw i8, ptr %0, i64 8
  %3 = load i64, ptr %2, align 8, !tbaa !3
  %4 = icmp eq i64 %3, 0
  br i1 %4, label %_ZN5boost10filesystem12windows_nameERKNSt7__cxx1112basic_stringIcSt11char_traitsIcESaIcEEE.exit.thread, label %5

5:                                                ; preds = %1
  %6 = tail call noundef i32 @_ZNKSt7__cxx1112basic_stringIcSt11char_traitsIcESaIcEE7compareEPKc(ptr noundef nonnull align 8 dereferenceable(32) %0, ptr noundef nonnull @.str.1) #2
  %7 = icmp eq i32 %6, 0
  br i1 %7, label %_ZN5boost10filesystem12windows_nameERKNSt7__cxx1112basic_stringIcSt11char_traitsIcESaIcEEE.exit.thread, label %8

8:                                                ; preds = %5
  %9 = tail call noundef i32 @_ZNKSt7__cxx1112basic_stringIcSt11char_traitsIcESaIcEE7compareEPKc(ptr noundef nonnull align 8 dereferenceable(32) %0, ptr noundef nonnull @.str) #2
  %10 = icmp eq i32 %9, 0
  br i1 %10, label %_ZN5boost10filesystem12windows_nameERKNSt7__cxx1112basic_stringIcSt11char_traitsIcESaIcEEE.exit.thread, label %11

11:                                               ; preds = %8
  %12 = load i64, ptr %2, align 8, !tbaa !3
  %13 = icmp eq i64 %12, 0
  br i1 %13, label %_ZN5boost10filesystem12windows_nameERKNSt7__cxx1112basic_stringIcSt11char_traitsIcESaIcEEE.exit.thread, label %14

14:                                               ; preds = %11
  %15 = load ptr, ptr %0, align 8, !tbaa !10
  %16 = load i8, ptr %15, align 1, !tbaa !11
  %.not.i = icmp eq i8 %16, 32
  br i1 %.not.i, label %_ZN5boost10filesystem12windows_nameERKNSt7__cxx1112basic_stringIcSt11char_traitsIcESaIcEEE.exit.thread, label %17

17:                                               ; preds = %14
  %18 = tail call noundef i64 @_ZNKSt7__cxx1112basic_stringIcSt11char_traitsIcESaIcEE13find_first_ofEPKcmm(ptr noundef nonnull align 8 dereferenceable(32) %0, ptr noundef nonnull @_ZN5boost10filesystem12_GLOBAL__N_121windows_invalid_charsE, i64 noundef 0, i64 noundef 39) #2
  %19 = icmp eq i64 %18, -1
  br i1 %19, label %20, label %_ZN5boost10filesystem12windows_nameERKNSt7__cxx1112basic_stringIcSt11char_traitsIcESaIcEEE.exit.thread

20:                                               ; preds = %17
  %21 = load ptr, ptr %0, align 8, !tbaa !10
  %22 = load i64, ptr %2, align 8, !tbaa !3
  %23 = getelementptr inbounds nuw i8, ptr %21, i64 %22
  %24 = getelementptr inbounds i8, ptr %23, i64 -1
  %25 = load i8, ptr %24, align 1, !tbaa !11
  switch i8 %25, label %_ZN5boost10filesystem12windows_nameERKNSt7__cxx1112basic_stringIcSt11char_traitsIcESaIcEEE.exit.thread8 [
    i8 32, label %_ZN5boost10filesystem12windows_nameERKNSt7__cxx1112basic_stringIcSt11char_traitsIcESaIcEEE.exit.thread
    i8 46, label %26
  ]

26:                                               ; preds = %20
  %27 = icmp eq i64 %22, 1
  br i1 %27, label %_ZN5boost10filesystem19portable_posix_nameERKNSt7__cxx1112basic_stringIcSt11char_traitsIcESaIcEEE.exit, label %_ZN5boost10filesystem12windows_nameERKNSt7__cxx1112basic_stringIcSt11char_traitsIcESaIcEEE.exit

_ZN5boost10filesystem12windows_nameERKNSt7__cxx1112basic_stringIcSt11char_traitsIcESaIcEEE.exit: ; preds = %26
  %28 = tail call noundef i32 @_ZNKSt7__cxx1112basic_stringIcSt11char_traitsIcESaIcEE7compareEPKc(ptr noundef nonnull align 8 dereferenceable(32) %0, ptr noundef nonnull @.str) #2
  %29 = icmp eq i32 %28, 0
  br i1 %29, label %_ZN5boost10filesystem12windows_nameERKNSt7__cxx1112basic_stringIcSt11char_traitsIcESaIcEEE.exit._ZN5boost10filesystem12windows_nameERKNSt7__cxx1112basic_stringIcSt11char_traitsIcESaIcEEE.exit.thread8thread-pre-split_crit_edge, label %_ZN5boost10filesystem12windows_nameERKNSt7__cxx1112basic_stringIcSt11char_traitsIcESaIcEEE.exit.thread

_ZN5boost10filesystem12windows_nameERKNSt7__cxx1112basic_stringIcSt11char_traitsIcESaIcEEE.exit._ZN5boost10filesystem12windows_nameERKNSt7__cxx1112basic_stringIcSt11char_traitsIcESaIcEEE.exit.thread8thread-pre-split_crit_edge: ; preds = %_ZN5boost10filesystem12windows_nameERKNSt7__cxx1112basic_stringIcSt11char_traitsIcESaIcEEE.exit
  %.pr.pre = load i64, ptr %2, align 8, !tbaa !3
  br label %_ZN5boost10filesystem12windows_nameERKNSt7__cxx1112basic_stringIcSt11char_traitsIcESaIcEEE.exit.thread8

_ZN5boost10filesystem12windows_nameERKNSt7__cxx1112basic_stringIcSt11char_traitsIcESaIcEEE.exit.thread8: ; preds = %_ZN5boost10filesystem12windows_nameERKNSt7__cxx1112basic_stringIcSt11char_traitsIcESaIcEEE.exit._ZN5boost10filesystem12windows_nameERKNSt7__cxx1112basic_stringIcSt11char_traitsIcESaIcEEE.exit.thread8thread-pre-split_crit_edge, %20
  %30 = phi i64 [ %22, %20 ], [ %.pr.pre, %_ZN5boost10filesystem12windows_nameERKNSt7__cxx1112basic_stringIcSt11char_traitsIcESaIcEEE.exit._ZN5boost10filesystem12windows_nameERKNSt7__cxx1112basic_stringIcSt11char_traitsIcESaIcEEE.exit.thread8thread-pre-split_crit_edge ]
  %31 = icmp eq i64 %30, 0
  br i1 %31, label %_ZN5boost10filesystem12windows_nameERKNSt7__cxx1112basic_stringIcSt11char_traitsIcESaIcEEE.exit.thread, label %_ZN5boost10filesystem19portable_posix_nameERKNSt7__cxx1112basic_stringIcSt11char_traitsIcESaIcEEE.exit

_ZN5boost10filesystem19portable_posix_nameERKNSt7__cxx1112basic_stringIcSt11char_traitsIcESaIcEEE.exit: ; preds = %26, %_ZN5boost10filesystem12windows_nameERKNSt7__cxx1112basic_stringIcSt11char_traitsIcESaIcEEE.exit.thread8
  %32 = tail call noundef i64 @_ZNKSt7__cxx1112basic_stringIcSt11char_traitsIcESaIcEE17find_first_not_ofEPKcmm(ptr noundef nonnull align 8 dereferenceable(32) %0, ptr noundef nonnull @_ZN5boost10filesystem12_GLOBAL__N_117posix_valid_charsE, i64 noundef 0, i64 noundef 65) #2
  %33 = icmp eq i64 %32, -1
  br i1 %33, label %34, label %_ZN5boost10filesystem12windows_nameERKNSt7__cxx1112basic_stringIcSt11char_traitsIcESaIcEEE.exit.thread

34:                                               ; preds = %_ZN5boost10filesystem19portable_posix_nameERKNSt7__cxx1112basic_stringIcSt11char_traitsIcESaIcEEE.exit
  %35 = load ptr, ptr %0, align 8, !tbaa !10
  %36 = load i8, ptr %35, align 1, !tbaa !11
  %37 = add i8 %36, -47
  %spec.select = icmp ult i8 %37, -2
  br label %_ZN5boost10filesystem12windows_nameERKNSt7__cxx1112basic_stringIcSt11char_traitsIcESaIcEEE.exit.thread

_ZN5boost10filesystem12windows_nameERKNSt7__cxx1112basic_stringIcSt11char_traitsIcESaIcEEE.exit.thread: ; preds = %34, %_ZN5boost10filesystem12windows_nameERKNSt7__cxx1112basic_stringIcSt11char_traitsIcESaIcEEE.exit.thread8, %11, %14, %17, %20, %5, %8, %_ZN5boost10filesystem19portable_posix_nameERKNSt7__cxx1112basic_stringIcSt11char_traitsIcESaIcEEE.exit, %_ZN5boost10filesystem12windows_nameERKNSt7__cxx1112basic_stringIcSt11char_traitsIcESaIcEEE.exit, %1
  %38 = phi i1 [ false, %1 ], [ true, %8 ], [ true, %5 ], [ false, %_ZN5boost10filesystem19portable_posix_nameERKNSt7__cxx1112basic_stringIcSt11char_traitsIcESaIcEEE.exit ], [ false, %_ZN5boost10filesystem12windows_nameERKNSt7__cxx1112basic_stringIcSt11char_traitsIcESaIcEEE.exit ], [ false, %20 ], [ false, %17 ], [ false, %14 ], [ false, %11 ], [ false, %_ZN5boost10filesystem12windows_nameERKNSt7__cxx1112basic_stringIcSt11char_traitsIcESaIcEEE.exit.thread8 ], [ %spec.select, %34 ]
  ret i1 %38
}